((lp1
(dp2
S'bin'
p3
(I01
I85
tp4
sS'cur_base'
p5
I2
sS'hex'
p6
(I01
I85
tp7
sS'cur_step'
p8
I0
sS'dec'
p9
(I01
I85
tp10
sS'cur_field_name'
p11
S'r7'
p12
sa(dp13
g3
(I01
I0
tp14
sg5
I2
sg6
(I01
I0
tp15
sg8
I0
sg9
(I01
I0
tp16
sg11
S'instr_addr'
p17
sa(lp18
(dp19
S'insert_mode'
p20
I01
sg11
g17
sg5
I2
sg8
I0
st.