((lp1
(dp2
S'bin'
p3
(I01
I85
tp4
sS'cur_base'
p5
I2
sS'hex'
p6
(I01
I85
tp7
sS'cur_step'
p8
I0
sS'dec'
p9
(I01
I85
tp10
sS'cur_field_name'
p11
S'r7'
p12
sa(dp13
g3
(I01
I0
tp14
sg5
I2
sg6
(I01
I0
tp15
sg8
I0
sg9
(I01
I0
tp16
sg11
S'instr_addr'
p17
sa(dp18
S'bin'
p19
(I00
I85
tp20
sS'cur_base'
p21
I1
sS'hex'
p22
(I00
I86
tp23
sS'cur_step'
p24
I0
sS'dec'
p25
(I00
I85
tp26
sS'cur_field_name'
p27
S'r7'
p28
sa(dp29
g19
(I00
I85
tp30
sg21
I0
sg22
(I00
I86
tp31
sg24
I0
sg25
(I00
I86
tp32
sg27
g28
sa(dp33
g19
(I00
I0
tp34
sg21
I0
sg22
(I00
I85
tp35
sg24
I0
sg25
(I00
I0
tp36
sg27
S'instr_addr'
p37
sa(dp38
g19
(I00
I64517
tp39
sg21
I1
sg22
(I00
I85
tp40
sg24
I0
sg25
(I00
I0
tp41
sg27
g37
sa(dp42
g19
(I00
I64517
tp43
sg21
I2
sg22
(I00
I85
tp44
sg24
I0
sg25
(I00
I64517
tp45
sg27
g37
sa(dp46
g19
(I01
I0
tp47
sg21
I0
sg22
(I01
I0
tp48
sg24
I0
sg25
(I01
I0
tp49
sg27
S'instr'
p50
sa(dp51
g19
(I00
I64517
tp52
sg21
I2
sg22
(I00
I0
tp53
sg24
I0
sg25
(I00
I0
tp54
sg27
g50
sa(dp55
g19
(I00
I64517
tp56
sg21
I0
sg22
(I00
I64517
tp57
sg24
I0
sg25
(I00
I64517
tp58
sg27
g50
sa(dp59
g19
(I01
I0
tp60
sg21
I1
sg22
(I01
I0
tp61
sg24
I0
sg25
(I01
I0
tp62
sg27
S'r0'
p63
sa(dp64
S'bin'
p65
(I00
I64517
tp66
sS'cur_base'
p67
I1
sS'hex'
p68
(I00
I64517
tp69
sS'cur_step'
p70
I0
sS'dec'
p71
(I00
I0
tp72
sS'cur_field_name'
p73
S'instr_addr'
p74
sa(dp75
S'bin'
p76
(I00
I64517
tp77
sS'cur_base'
p78
I1
sS'hex'
p79
(I00
I64517
tp80
sS'cur_step'
p81
I0
sS'dec'
p82
(I00
I0
tp83
sS'cur_field_name'
p84
S'instr_addr'
p85
sa(dp86
g76
(I00
I64517
tp87
sg78
I2
sg79
(I00
I64517
tp88
sg81
I0
sg82
(I00
I64517
tp89
sg84
S'instr'
p90
sa(dp91
g76
(I00
I64517
tp92
sg78
I2
sg79
(I00
I64517
tp93
sg81
I0
sg82
(I00
I64517
tp94
sg84
g90
sa(dp95
g76
(I00
I64517
tp96
sg78
I1
sg79
(I00
I64517
tp97
sg81
I0
sg82
(I00
I0
tp98
sg84
g85
sa(dp99
g76
(I01
I0
tp100
sg78
I1
sg79
(I01
I0
tp101
sg81
I0
sg82
(I01
I0
tp102
sg84
S'r4'
p103
sa(dp104
g76
(I00
I64517
tp105
sg78
I1
sg79
(I00
I64517
tp106
sg81
I0
sg82
(I00
I0
tp107
sg84
g85
sa(dp108
g76
(I00
I64517
tp109
sg78
I0
sg79
(I00
I64517
tp110
sg81
I0
sg82
(I00
I0
tp111
sg84
g85
sa(dp112
g76
(I00
I64517
tp113
sg78
I1
sg79
(I00
I64517
tp114
sg81
I0
sg82
(I00
I0
tp115
sg84
g85
sa(dp116
g76
(I00
I64517
tp117
sg78
I2
sg79
(I00
I64517
tp118
sg81
I0
sg82
(I00
I85
tp119
sg84
g85
sa(dp120
g76
(I00
I64517
tp121
sg78
I0
sg79
(I00
I85
tp122
sg81
I0
sg82
(I00
I85
tp123
sg84
g85
sa(dp124
g76
(I00
I86
tp125
sg78
I1
sg79
(I00
I86
tp126
sg81
I0
sg82
(I00
I86
tp127
sg84
S'r7'
p128
sa(dp129
g76
(I00
I86
tp130
sg78
I2
sg79
(I00
I86
tp131
sg81
I0
sg82
(I00
I91
tp132
sg84
g128
sa(dp133
g76
(I00
I86
tp134
sg78
I0
sg79
(I00
I91
tp135
sg81
I0
sg82
(I00
I91
tp136
sg84
g128
sa(dp137
g76
(I01
I85
tp138
sg78
I1
sg79
(I01
I85
tp139
sg81
I1
sg82
(I01
I85
tp140
sg84
g85
sa(dp141
g76
(I00
I85
tp142
sg78
I0
sg79
(I00
I85
tp143
sg81
I1
sg82
(I00
I91
tp144
sg84
g85
sa(dp145
g76
(I00
I91
tp146
sg78
I2
sg79
(I00
I85
tp147
sg81
I1
sg82
(I00
I91
tp148
sg84
g85
sa(dp149
g76
(I01
I64517
tp150
sg78
I0
sg79
(I01
I64517
tp151
sg81
I1
sg82
(I01
I64517
tp152
sg84
g90
sa(dp153
g76
(I01
I27097
tp154
sg78
I0
sg79
(I01
I27097
tp155
sg81
I1
sg82
(I01
I27097
tp156
sg84
S'r3'
p157
sa(dp158
g76
(I00
I65501
tp159
sg78
I1
sg79
(I00
I27097
tp160
sg81
I1
sg82
(I00
I27097
tp161
sg84
g157
sa(dp162
g76
(I00
I65501
tp163
sg78
I2
sg79
(I00
I27097
tp164
sg81
I1
sg82
(I00
I65501
tp165
sg84
g157
sa(dp166
g76
(I01
I91
tp167
sg78
I1
sg79
(I01
I91
tp168
sg81
I1
sg82
(I01
I91
tp169
sg84
g128
sa(dp170
g76
(I00
I91
tp171
sg78
I2
sg79
(I00
I91
tp172
sg81
I1
sg82
(I00
I92
tp173
sg84
g128
sa(dp174
g76
(I00
I91
tp175
sg78
I0
sg79
(I00
I92
tp176
sg81
I1
sg82
(I00
I92
tp177
sg84
g128
sa(dp178
g76
(I00
I0
tp179
sg78
I0
sg79
(I00
I92
tp180
sg81
I1
sg82
(I00
I92
tp181
sg84
g128
sa(dp182
g76
(I00
I0
tp183
sg78
I0
sg79
(I00
I92
tp184
sg81
I1
sg82
(I00
I92
tp185
sg84
g128
sa(dp186
g76
(I01
I2
tp187
sg78
I0
sg79
(I01
I2
tp188
sg81
I1
sg82
(I01
I2
tp189
sg84
S'cc'
p190
sa(dp191
g76
(I00
I8
tp192
sg78
I2
sg79
(I00
I2
tp193
sg81
I1
sg82
(I00
I2
tp194
sg84
g190
sa(dp195
g76
(I00
I8
tp196
sg78
I2
sg79
(I00
I8
tp197
sg81
I1
sg82
(I00
I8
tp198
sg84
g190
sa(dp199
g76
(I01
I91
tp200
sg78
I1
sg79
(I01
I91
tp201
sg81
I2
sg82
(I01
I91
tp202
sg84
g85
sa(dp203
g76
(I00
I91
tp204
sg78
I2
sg79
(I00
I91
tp205
sg81
I2
sg82
(I00
I92
tp206
sg84
g85
sa(dp207
g76
(I00
I91
tp208
sg78
I0
sg79
(I00
I92
tp209
sg81
I2
sg82
(I00
I92
tp210
sg84
g85
sa(dp211
g76
(I01
I47996
tp212
sg78
I0
sg79
(I01
I64517
tp213
sg81
I2
sg82
(I01
I64517
tp214
sg84
g90
sa(dp215
g76
(I00
I14905
tp216
sg78
I2
sg79
(I00
I64517
tp217
sg81
I2
sg82
(I00
I64517
tp218
sg84
g90
sa(dp219
g76
(I01
I23936
tp220
sg78
I1
sg79
(I01
I23936
tp221
sg81
I2
sg82
(I01
I23936
tp222
sg84
S'r2'
p223
sa(dp224
g76
(I00
I23936
tp225
sg78
I2
sg79
(I00
I23936
tp226
sg81
I2
sg82
(I00
I52269
tp227
sg84
g223
sa(dp228
g76
(I00
I23936
tp229
sg78
I0
sg79
(I00
I52269
tp230
sg81
I2
sg82
(I00
I52269
tp231
sg84
g223
sa(dp232
g76
(I01
I8
tp233
sg78
I0
sg79
(I01
I8
tp234
sg81
I2
sg82
(I01
I8
tp235
sg84
g190
sa(dp236
g76
(I01
I92
tp237
sg78
I1
sg79
(I01
I92
tp238
sg81
I2
sg82
(I01
I92
tp239
sg84
g128
sa(dp240
g76
(I00
I92
tp241
sg78
I2
sg79
(I00
I92
tp242
sg81
I2
sg82
(I00
I93
tp243
sg84
g128
sa(dp244
g76
(I00
I92
tp245
sg78
I2
sg79
(I00
I93
tp246
sg81
I2
sg82
(I00
I93
tp247
sg84
g128
sa(dp248
g76
(I00
I92
tp249
sg78
I0
sg79
(I00
I93
tp250
sg81
I2
sg82
(I00
I93
tp251
sg84
g128
sa(dp252
g76
(I01
I92
tp253
sg78
I1
sg79
(I01
I92
tp254
sg81
I3
sg82
(I01
I92
tp255
sg84
g85
sa(dp256
g76
(I00
I92
tp257
sg78
I2
sg79
(I00
I92
tp258
sg81
I3
sg82
(I00
I93
tp259
sg84
g85
sa(dp260
g76
(I00
I92
tp261
sg78
I0
sg79
(I00
I93
tp262
sg81
I3
sg82
(I00
I93
tp263
sg84
g85
sa(dp264
g76
(I01
I14905
tp265
sg78
I0
sg79
(I01
I14905
tp266
sg81
I3
sg82
(I01
I14905
tp267
sg84
g90
sa(dp268
g76
(I01
I93
tp269
sg78
I1
sg79
(I01
I93
tp270
sg81
I3
sg82
(I01
I93
tp271
sg84
g128
sa(dp272
g76
(I00
I93
tp273
sg78
I2
sg79
(I00
I93
tp274
sg81
I3
sg82
(I00
I94
tp275
sg84
g128
sa(dp276
g76
(I00
I93
tp277
sg78
I0
sg79
(I00
I94
tp278
sg81
I3
sg82
(I00
I94
tp279
sg84
g128
sa(dp280
g76
(I01
I93
tp281
sg78
I1
sg79
(I01
I93
tp282
sg81
I4
sg82
(I01
I93
tp283
sg84
g85
sa(dp284
g76
(I00
I93
tp285
sg78
I2
sg79
(I00
I93
tp286
sg81
I4
sg82
(I00
I94
tp287
sg84
g85
sa(dp288
g76
(I00
I93
tp289
sg78
I0
sg79
(I00
I94
tp290
sg81
I4
sg82
(I00
I94
tp291
sg84
g85
sa(dp292
g76
(I01
I94
tp293
sg78
I1
sg79
(I01
I94
tp294
sg81
I4
sg82
(I01
I94
tp295
sg84
g128
sa(dp296
g76
(I00
I94
tp297
sg78
I2
sg79
(I00
I94
tp298
sg81
I4
sg82
(I00
I95
tp299
sg84
g128
sa(dp300
g76
(I00
I94
tp301
sg78
I0
sg79
(I00
I95
tp302
sg81
I4
sg82
(I00
I95
tp303
sg84
g128
sa(dp304
g76
(I01
I14905
tp305
sg78
I0
sg79
(I01
I14905
tp306
sg81
I4
sg82
(I01
I14905
tp307
sg84
g90
sa(dp308
g76
(I00
I37051
tp309
sg78
I2
sg79
(I00
I14905
tp310
sg81
I4
sg82
(I00
I14905
tp311
sg84
g90
sa(dp312
g76
(I01
I0
tp313
sg78
I0
sg79
(I01
I0
tp314
sg81
I4
sg82
(I01
I0
tp315
sg84
S'r0'
p316
sa(dp317
S'bin'
p318
(I00
I8
tp319
sS'cur_base'
p320
I2
sS'hex'
p321
(I00
I8
tp322
sS'cur_step'
p323
I1
sS'dec'
p324
(I00
I8
tp325
sS'cur_field_name'
p326
S'cc'
p327
sa(dp328
g318
(I00
I8
tp329
sg320
I2
sg321
(I00
I3
tp330
sg323
I1
sg324
(I00
I3
tp331
sg326
g327
sa(dp332
g318
(I00
I8
tp333
sg320
I2
sg321
(I00
I8
tp334
sg323
I1
sg324
(I00
I8
tp335
sg326
g327
sa(dp336
g318
(I00
I47996
tp337
sg320
I2
sg321
(I00
I64517
tp338
sg323
I1
sg324
(I00
I64517
tp339
sg326
S'instr'
p340
sa(dp341
g318
(I00
I14905
tp342
sg320
I0
sg321
(I00
I14905
tp343
sg323
I3
sg324
(I00
I14905
tp344
sg326
g340
sa(dp345
g318
(I00
I64250
tp346
sg320
I2
sg321
(I00
I14905
tp347
sg323
I3
sg324
(I00
I14905
tp348
sg326
g340
sa(lp349
(dp350
S'insert_mode'
p351
I01
sg326
g340
sg320
I2
sg323
I0
st.